target datalayout = "e-m:e-p270:32:32-p271:32:32-p272:64:64-i64:64-i128:128-f80:128-n8:16:32:64-S128"
target triple = "x86_64-pc-linux-gnu"

%struct.AVCodecContext = type { ptr, i32, i32, ptr, i32, i32, ptr, ptr, ptr, i64, i32, i32, ptr, i32, %struct.AVRational, %struct.AVRational, %struct.AVRational, i32, i32, i32, i32, i32, %struct.AVRational, i32, i32, i32, i32, i32, i32, i32, i32, i32, i32, i32, ptr, ptr, i32, float, float, float, float, float, float, float, float, float, i32, i32, i32, i32, i32, i32, i32, i32, i32, i32, i32, i32, ptr, ptr, ptr, i32, i32, i32, i32, i32, i32, i32, i32, i32, i32, %struct.AVChannelLayout, i32, i32, i32, i32, i32, i32, i32, i32, ptr, i32, i32, i32, float, float, i32, i32, i32, i32, i32, ptr, i64, i64, float, float, i32, i32, ptr, ptr, i32, i32, i32, i32, i32, ptr, ptr, ptr, ptr, i32, i32, [8 x i64], i32, i32, i32, i32, i32, i32, i32, ptr, ptr, i32, i32, i32, i32, i32, i32, i32, i32, i32, i32, ptr, ptr, i32, i32, ptr, ptr, ptr, ptr, i32, i32, i64, i32, i32, i64, ptr, i64, ptr, i32, ptr, i32 }
%struct.AVRational = type { i32, i32 }
%struct.AVChannelLayout = type { i32, i32, %union.anon.0, ptr }
%union.anon.0 = type { i64 }
%struct.vp56_context = type { ptr, %struct.H264ChromaContext, %struct.HpelDSPContext, %struct.VideoDSPContext, %struct.VP3DSPContext, %struct.VP56DSPContext, [64 x i8], [4 x ptr], ptr, ptr, %struct.VPXRangeCoder, %struct.VPXRangeCoder, ptr, i32, i32, [4 x i32], [4 x i32], i32, i32, [6 x i32], i32, i16, i16, ptr, [4 x %struct.VP56RefDc], [6 x i32], [3 x [3 x i16]], i32, ptr, [8 x i8], [6 x [64 x i16]], [6 x i32], ptr, [6 x %struct.VP56mv], [2 x %struct.VP56mv], i32, i32, i32, i32, i32, i32, i32, [4 x i8], [256 x i32], [4 x [64 x i8]], [4 x i8], i32, i32, i32, i32, i32, i32, i32, [4 x i64], ptr, ptr, ptr, ptr, ptr, ptr, ptr, ptr, ptr, ptr, %struct.VP56Model, i32, %struct.GetBitContext, [2 x %struct.VLC], [2 x %struct.VLC], [2 x [3 x [4 x %struct.VLC]]], [2 x [2 x i32]], i32, i32 }
%struct.H264ChromaContext = type { [4 x ptr], [4 x ptr] }
%struct.HpelDSPContext = type { [4 x [4 x ptr]], [4 x [4 x ptr]], [4 x [4 x ptr]], [4 x ptr] }
%struct.VideoDSPContext = type { ptr, ptr }
%struct.VP3DSPContext = type { ptr, ptr, ptr, ptr, ptr, ptr, ptr, ptr }
%struct.VP56DSPContext = type { ptr, ptr, ptr }
%struct.VPXRangeCoder = type { i32, i32, ptr, ptr, i32, i32 }
%struct.VP56RefDc = type { i8, i32, i16 }
%struct.VP56mv = type { i16, i16 }
%struct.VP56Model = type { [64 x i8], [64 x i8], [64 x i8], [2 x i8], [2 x i8], [2 x [2 x i8]], [2 x [7 x i8]], [2 x [8 x i8]], [2 x [11 x i8]], [2 x [3 x [6 x [11 x i8]]]], [2 x [3 x [3 x [6 x [5 x i8]]]]], [2 x [36 x [5 x i8]]], [2 x [14 x i8]], [3 x [10 x [10 x i8]]], [3 x [10 x [2 x i8]]] }
%struct.GetBitContext = type { ptr, ptr, i32, i32, i32 }
%struct.VLC = type { i32, ptr, i32, i32 }

; Function Attrs: cold nounwind optsize uwtable
define internal i32 @vp6_decode_free(ptr noundef %0) #0 {
  %2 = alloca ptr, align 8
  %3 = alloca ptr, align 8
  store ptr %0, ptr %2, align 8, !tbaa !4
  call void @llvm.lifetime.start.p0(i64 8, ptr %3) #9
  %4 = load ptr, ptr %2, align 8, !tbaa !4
  %5 = getelementptr inbounds nuw %struct.AVCodecContext, ptr %4, i32 0, i32 6
  %6 = load ptr, ptr %5, align 8, !tbaa !9
  store ptr %6, ptr %3, align 8, !tbaa !29
  %7 = load ptr, ptr %3, align 8, !tbaa !29
  call void @vp6_decode_free_context(ptr noundef %7) #10
  %8 = load ptr, ptr %3, align 8, !tbaa !29
  %9 = getelementptr inbounds nuw %struct.vp56_context, ptr %8, i32 0, i32 62
  %10 = load ptr, ptr %9, align 16, !tbaa !48
  %11 = icmp ne ptr %10, null
  br i1 %11, label %12, label %18

12:                                               ; preds = %1
  %13 = load ptr, ptr %3, align 8, !tbaa !29
  %14 = getelementptr inbounds nuw %struct.vp56_context, ptr %13, i32 0, i32 62
  %15 = load ptr, ptr %14, align 16, !tbaa !48
  call void @vp6_decode_free_context(ptr noundef %15) #10
  %16 = load ptr, ptr %3, align 8, !tbaa !29
  %17 = getelementptr inbounds nuw %struct.vp56_context, ptr %16, i32 0, i32 62
  store ptr null, ptr %17, align 16, !tbaa !48
  br label %18

18:                                               ; preds = %12, %1
  call void @llvm.lifetime.end.p0(i64 8, ptr %3) #9
  ret i32 0
}