; Function Attrs: cold nounwind optsize uwtable
define internal noundef i32 @vp6_decode_free(ptr noundef readonly captures(none) %0) #0 {
  %2 = getelementptr inbounds nuw i8, ptr %0, i64 32
  %3 = load ptr, ptr %2, align 8, !tbaa !4
  tail call fastcc void @vp6_decode_free_context(ptr noundef %3) #10
  %4 = getelementptr inbounds nuw i8, ptr %3, i64 3248
  %5 = load ptr, ptr %4, align 16, !tbaa !45
  %.not = icmp eq ptr %5, null
  br i1 %.not, label %7, label %6

6:                                                ; preds = %1
  tail call fastcc void @vp6_decode_free_context(ptr noundef nonnull %5) #10
  store ptr null, ptr %4, align 16, !tbaa !45
  br label %7

7:                                                ; preds = %6, %1
  ret i32 0
}